(dp0
S'Wealth Strategies Group LLC'
p1
(dp2
S'Wealth Strategies Group'
p3
S'www.indeed.com/cmp/Wealth-Strategies-Group'
p4
sS'MetLife'
p5
S'www.indeed.com/cmp/MetLife'
p6
sS'Guardian Life Insurance Company'
p7
S'www.indeed.com/cmp/Guardian-Life-Insurance-Company'
p8
ssS'Arrow Electronics'
p9
(dp10
S'Arrows Electronics'
p11
S'www.indeed.com/cmp/Arrows-Electronics'
p12
sS'Arrow Electronics'
p13
S'www.indeed.com/cmp/Arrow-Electronics'
p14
sS'A.E. Petsche/Arrow Electronics'
p15
S'www.indeed.com/cmp/A.e.-Petsche/arrow-Electronics'
p16
sS'Arrow Zeus Electronics'
p17
S'www.indeed.com/cmp/Arrow-Zeus-Electronics'
p18
ssS'New York Life Insurance Company'
p19
(dp20
S'New York Life'
p21
S'www.indeed.com/cmp/New-York-Life'
p22
sS'Combined Life Insurance Company of new York'
p23
S'www.indeed.com/cmp/Combined-Life-Insurance-Company-of-New-York'
p24
sS'New York Life Insurance Company'
p25
S'www.indeed.com/cmp/New-York-Life-Insurance-Company'
p26
sS'Security Mutual Life Insurance Company of New York'
p27
S'www.indeed.com/cmp/Security-Mutual-Life-Insurance-Company-of-New-York'
p28
sS'ING Vysya Bank'
p29
S'www.indeed.com/cmp/Ing-Vysya-Bank'
p30
sS'NextSource New York Life Insurance'
p31
S'www.indeed.com/cmp/Nextsource-New-York-Life-Insurance'
p32
sS'Max life insurance'
p33
S'www.indeed.com/cmp/Max-Life-Insurance'
p34
sS'Guardian Life Insurance Company'
p35
S'www.indeed.com/cmp/Guardian-Life-Insurance-Company'
p36
sS'Bankers Life'
p37
S'www.indeed.com/cmp/Bankers-Life'
p38
sS'Kotak Mahindra Bank'
p39
S'www.indeed.com/cmp/Kotak-Mahindra-Bank'
p40
ssS'Oakwood Homes, LLC'
p41
(dp42
S'Oakwood Homes'
p43
S'www.indeed.com/cmp/Oakwood-Homes'
p44
sS'Oakwood Lutheran Homes Association'
p45
S'www.indeed.com/cmp/Oakwood-Lutheran-Homes-Association'
p46
sS'OAKWOOD LUTHERAN HOMES'
p47
S'www.indeed.com/cmp/Oakwood-Lutheran-Homes'
p48
ssS'Mutual of Omaha'
p49
(dp50
S'Mutual of Omaha'
p51
S'www.indeed.com/cmp/Mutual-of-Omaha'
p52
sS'Northwestern Mutual'
p53
S'www.indeed.com/cmp/Northwestern-Mutual'
p54
sS'New York Life'
p55
S'www.indeed.com/cmp/New-York-Life'
p56
ssS'Monterey Marketing Inc'
p57
(dp58
S'Monterey Marketing'
p59
S'www.indeed.com/cmp/Monterey-Marketing'
p60
sS'Monterey Marketing LLC'
p61
S'www.indeed.com/cmp/Monterey-Marketing-LLC'
p62
ssS'STRIVE Preparatory Schools'
p63
(dp64
S'STRIVE Preparatory Schools'
p65
S'www.indeed.com/cmp/Strive-Preparatory-Schools'
p66
ssS'At Home Personal Care'
p67
(dp68
S'At Home Healthcare'
p69
S'www.indeed.com/cmp/At-Home-Healthcare'
p70
sS'Stay at Home Personal Care'
p71
S'www.indeed.com/cmp/Stay-At-Home-Personal-Care'
p72
ssS'Janus Henderson Investors'
p73
(dp74
S'Janus Henderson Investors'
p75
S'www.indeed.com/cmp/Janus-Henderson-Investors'
p76
ssS'SmarTek21'
p77
(dp78
sS'Graebel Companies, Inc.'
p79
(dp80
S'Graebel Companies'
p81
S'www.indeed.com/cmp/Graebel-Companies'
p82
sS'Graebel Companies, Inc'
p83
S'www.indeed.com/cmp/Graebel-Companies,-Inc'
p84
sS'GRAEBEL COMPANIES INC'
p85
S'www.indeed.com/cmp/Graebel-Companies-Inc'
p86
sS'Graebel Companies, Inc.'
p87
S'www.indeed.com/cmp/Graebel-Companies,-Inc.'
p88
ssS'Trustpilot'
p89
(dp90
S'TRUSTPILOT'
p91
S'www.indeed.com/cmp/Trustpilot'
p92
ssS'Taylor Smith Consulting, LLC'
p93
(dp94
S'Taylor Smith Consulting, LLC'
p95
S'www.indeed.com/cmp/Taylor-Smith-Consulting,-LLC'
p96
sS'Taylor Smith Consulting'
p97
S'www.indeed.com/cmp/Taylor-Smith-Consulting'
p98
ssS'Medical Group Management Association (MGMA)'
p99
(dp100
sS'The Travelers Companies Inc.'
p101
(dp102
S'Travelers'
p103
S'www.indeed.com/cmp/Travelers'
p104
ssS'Business'
p105
(dp106
S'Citizens Business Bank'
p107
S'www.indeed.com/cmp/Citizens-Business-Bank'
p108
sS'Cherokee Nation Businesses'
p109
S'www.indeed.com/cmp/Cherokee-Nation-Businesses'
p110
sS'Better Business Bureau'
p111
S'www.indeed.com/cmp/Better-Business-Bureau'
p112
sS'Progressive Business Publications'
p113
S'www.indeed.com/cmp/Progressive-Business-Publications'
p114
sS'Toshiba America Business Solutions, Inc.'
p115
S'www.indeed.com/cmp/Toshiba-America-Business-Solutions,-Inc.'
p116
sS'Business Insider'
p117
S'www.indeed.com/cmp/Business-Insider'
p118
sS'Toshiba Business Solutions'
p119
S'www.indeed.com/cmp/Toshiba-Business-Solutions'
p120
sS'Businessolver'
p121
S'www.indeed.com/cmp/Businessolver'
p122
sS'CORT Business Services'
p123
S'www.indeed.com/cmp/Cort-Business-Services'
p124
sS'Konica Minolta Business Solutions, U.S.A., Inc.'
p125
S'www.indeed.com/cmp/Konica-Minolta-Business-Solutions,-U.s.a.,-Inc.'
p126
ssS'IHG - InterContinental Hotels Group'
p127
(dp128
S'InterContinental Hotels Group'
p129
S'www.indeed.com/cmp/Intercontinental-Hotels-Group'
p130
sS'Crowne Plaza Hotel'
p131
S'www.indeed.com/cmp/Crowne-Plaza-Hotel'
p132
ssS'Vistana Signature Experiences'
p133
(dp134
S'Vistana Signature Experiences'
p135
S'www.indeed.com/cmp/Vistana-Signature-Experiences'
p136
ssS'Coyote Logistics LLC'
p137
(dp138
S'Coyote Logistics'
p139
S'www.indeed.com/cmp/Coyote-Logistics'
p140
sS'Coyote Logistics, A UPS Company'
p141
S'www.indeed.com/cmp/Coyote-Logistics,-A-UPS-Company'
p142
ssS'Agility Recovery'
p143
(dp144
S'Agility Recovery Solutions'
p145
S'www.indeed.com/cmp/Agility-Recovery-Solutions'
p146
sS'Agility Recovery'
p147
S'www.indeed.com/cmp/Agility-Recovery'
p148
ssS'Foresters Financial'
p149
(dp150
S'Foresters Financial'
p151
S'www.indeed.com/cmp/Foresters-Financial'
p152
sS"Forester's Financial"
p153
S"www.indeed.com/cmp/Forester's-Financial"
p154
sS"Forester's Financial Services"
p155
S"www.indeed.com/cmp/Forester's-Financial-Services"
p156
sS'American Income Life'
p157
S'www.indeed.com/cmp/American-Income-Life'
p158
ssS'Ensign Services Inc'
p159
(dp160
S'Ensign Services, Inc.'
p161
S'www.indeed.com/cmp/Ensign-Services,-Inc.'
p162
sS'Ensign Services'
p163
S'www.indeed.com/cmp/Ensign-Services'
p164
sS'Ensign Services, Inc'
p165
S'www.indeed.com/cmp/Ensign-Services,-Inc'
p166
sS'Ensign Energy Services Inc.'
p167
S'www.indeed.com/cmp/Ensign-Energy-Services-Inc.'
p168
sS'Ensign Well Services'
p169
S'www.indeed.com/cmp/Ensign-Well-Services'
p170
sS'Ensign Facility Services'
p171
S'www.indeed.com/cmp/Ensign-Facility-Services'
p172
ssS'OTR Capital LLC'
p173
(dp174
sS'Collabera'
p175
(dp176
S'MetLife via Collabera Inc'
p177
S'www.indeed.com/cmp/MetLife-Via-Collabera-Inc'
p178
sS'Collabera'
p179
S'www.indeed.com/cmp/Collabera'
p180
sS'Honeywell'
p181
S'www.indeed.com/cmp/Honeywell'
p182
sS'Accenture'
p183
S'www.indeed.com/cmp/Accenture'
p184
sS'JPMorgan Chase'
p185
S'www.indeed.com/cmp/JPMorgan-Chase'
p186
sS'Amazon.com'
p187
S'www.indeed.com/cmp/Amazon.com'
p188
sS'Deloitte'
p189
S'www.indeed.com/cmp/Deloitte'
p190
sS'AT&T'
p191
S'www.indeed.com/cmp/AT&T'
p192
sS'Microsoft'
p193
S'www.indeed.com/cmp/Microsoft'
p194
sS'CompuCom'
p195
S'www.indeed.com/cmp/Compucom'
p196
ssS'WXYZ'
p197
(dp198
S'WXYZ-TV'
p199
S'www.indeed.com/cmp/Wxyz--tv'
p200
sS'WXYZ'
p201
S'www.indeed.com/cmp/Wxyz'
p202
ssS'Arture'
p203
(dp204
sS'Viq Australia'
p205
(dp206
sS'Frontier Airlines, Inc.'
p207
(dp208
S'Swissport International Ltd.'
p209
S'www.indeed.com/cmp/Swissport-International-Ltd.'
p210
sS'Trego/Dugan Aviation'
p211
S'www.indeed.com/cmp/Trego-Dugan-Aviation-2'
p212
sS'Frontier Airlines Airport Terminal Services'
p213
S'www.indeed.com/cmp/Frontier-Airlines-Airport-Terminal-Services'
p214
sS'Frontier Airlines'
p215
S'www.indeed.com/cmp/Frontier-Airlines'
p216
sS'Sitel'
p217
S'www.indeed.com/cmp/Sitel'
p218
sS'FRONTIER AIRLINES, INC'
p219
S'www.indeed.com/cmp/Frontier-Airlines,-Inc'
p220
sS'Frontier Airlines, Inc.'
p221
S'www.indeed.com/cmp/Frontier-Airlines,-Inc.'
p222
sS'WorldWide Flight Services-Frontier Airlines'
p223
S'www.indeed.com/cmp/Worldwide-Flight-Services--frontier-Airlines'
p224
ssS'Zayo Group LLC'
p225
(dp226
S'Zayo Group'
p227
S'www.indeed.com/cmp/Zayo-Group'
p228
ssS'Grace Presbyterian Village'
p229
(dp230
S'Grace Presbyterian Village'
p231
S'www.indeed.com/cmp/Grace-Presbyterian-Village'
p232
ssS'Visual TECH.'
p233
(dp234
S'Audio Visual Technologies'
p235
S'www.indeed.com/cmp/Audio-Visual-Technologies'
p236
sS'Technical Services Audio Visual'
p237
S'www.indeed.com/cmp/Technical-Services-Audio-Visual'
p238
sS'Visual Awareness Technologies & Consulting'
p239
S'www.indeed.com/cmp/Visual-Awareness-Technologies-&-Consulting'
p240
sS'Audio Visual Tech'
p241
S'www.indeed.com/cmp/Audio-Visual-Tech'
p242
sS'Visual Tech'
p243
S'www.indeed.com/cmp/Visual-Tech'
p244
sS'NVIDIA'
p245
S'www.indeed.com/cmp/Nvidia'
p246
sS'Canvys Visual Technology Solutions'
p247
S'www.indeed.com/cmp/Canvys-Visual-Technology-Solutions'
p248
sS'Technicolor'
p249
S'www.indeed.com/cmp/Technicolor'
p250
ssS'Hagerty'
p251
(dp252
S'Hagerty Industrial Supply'
p253
S'www.indeed.com/cmp/Hagerty-Industrial-Supply'
p254
sS'Hagerty High School'
p255
S'www.indeed.com/cmp/Hagerty-High-School'
p256
sS'Hagerty'
p257
S'www.indeed.com/cmp/Hagerty'
p258
sS'Hagerty Pop Warner'
p259
S'www.indeed.com/cmp/Hagerty-Pop-Warner'
p260
sS'Hagerty Consulting'
p261
S'www.indeed.com/cmp/Hagerty-Consulting'
p262
sS"Hess, Egan, Hagerty & L'Hommedieu, Inc."
p263
S"www.indeed.com/cmp/Hess,-Egan,-Hagerty-&-L'hommedieu,-Inc."
p264
sS'Hagerty Steel & Aluminum'
p265
S'www.indeed.com/cmp/Hagerty-Steel-&-Aluminum'
p266
sS'Hagerty Steel'
p267
S'www.indeed.com/cmp/Hagerty-Steel'
p268
sS'Kalbian Hagerty, LLP'
p269
S'www.indeed.com/cmp/Kalbian-Hagerty,-LLP'
p270
ssS'Procter & Gamble'
p271
(dp272
S'DHL'
p273
S'www.indeed.com/cmp/DHL'
p274
sS'IBM'
p275
S'www.indeed.com/cmp/IBM'
p276
sS'Procter'
p277
S'www.indeed.com/cmp/Procter'
p278
sS'Manpower'
p279
S'www.indeed.com/cmp/Manpower'
p280
sS'Procter & Gamble'
p281
S'www.indeed.com/cmp/Procter-&-Gamble'
p282
sS'HP'
p283
S'www.indeed.com/cmp/HP'
p284
sS'Randstad'
p285
S'www.indeed.com/cmp/Randstad'
p286
sS'Goodwin Procter LLP'
p287
S'www.indeed.com/cmp/Goodwin-Procter-LLP'
p288
sS'Accenture'
p289
S'www.indeed.com/cmp/Accenture'
p290
sS'GOODWIN PROCTER'
p291
S'www.indeed.com/cmp/Goodwin-Procter'
p292
ssS'Veryable Inc.'
p293
(dp294
sS'China America Gateways'
p295
(dp296
sS'City Year Inc'
p297
(dp298
S'City Year Philadelphia'
p299
S'www.indeed.com/cmp/City-Year-Philadelphia'
p300
sS'City Year'
p301
S'www.indeed.com/cmp/City-Year'
p302
sS'City Year Chicago'
p303
S'www.indeed.com/cmp/City-Year-Chicago'
p304
sS'City Year Greater Philadelphia'
p305
S'www.indeed.com/cmp/City-Year-Greater-Philadelphia'
p306
sS'City Year Cleveland'
p307
S'www.indeed.com/cmp/City-Year-Cleveland'
p308
sS'City Year Boston'
p309
S'www.indeed.com/cmp/City-Year-Boston'
p310
sS'City Year Los Angeles'
p311
S'www.indeed.com/cmp/City-Year-Los-Angeles'
p312
sS'City Year Miami'
p313
S'www.indeed.com/cmp/City-Year-Miami'
p314
sS'City Year Detroit'
p315
S'www.indeed.com/cmp/City-Year-Detroit'
p316
sS'City Year New York'
p317
S'www.indeed.com/cmp/City-Year-New-York'
p318
ssS'City and County Of Denver'
p319
(dp320
S'City and County of Denver'
p321
S'www.indeed.com/cmp/City-and-County-of-Denver'
p322
ssS'Vanguard'
p323
(dp324
S'Vanguard Car Rental USA'
p325
S'www.indeed.com/cmp/Vanguard-Car-Rental-USA'
p326
sS'Vanguard Cleaning Systems'
p327
S'www.indeed.com/cmp/Vanguard-Cleaning-Systems'
p328
sS'Vanguard Resources Inc.'
p329
S'www.indeed.com/cmp/Vanguard-Resources-Inc.'
p330
sS'Vanguard Emergency Management'
p331
S'www.indeed.com/cmp/Vanguard-Emergency-Management'
p332
sS'VANGUARD NATIONAL TRAILER'
p333
S'www.indeed.com/cmp/Vanguard-National-Trailer'
p334
sS'Vanguard'
p335
S'www.indeed.com/cmp/Vanguard'
p336
sS'VANGUARD RESOURCES'
p337
S'www.indeed.com/cmp/Vanguard-Resources'
p338
sS'VANGUARD UNIVERSITY'
p339
S'www.indeed.com/cmp/Vanguard-University'
p340
sS'Harvard Vanguard Medical Associates'
p341
S'www.indeed.com/cmp/Harvard-Vanguard-Medical-Associates'
p342
sS'Vanguard Logistics'
p343
S'www.indeed.com/cmp/Vanguard-Logistics'
p344
ssS'Techtronic Industries North America Inc'
p345
(dp346
S'Techtronic Industries North America'
p347
S'www.indeed.com/cmp/Techtronic-Industries-North-America'
p348
ssS'Transamerica Corporation'
p349
(dp350
S'Transamerica US'
p351
S'www.indeed.com/cmp/Transamerica-US'
p352
sS'Transamerica Financial Advisors'
p353
S'www.indeed.com/cmp/Transamerica-Financial-Advisors'
p354
sS'Transamerica Life Insurance'
p355
S'www.indeed.com/cmp/Transamerica-Life-Insurance'
p356
sS'Transamerica Life & Protection'
p357
S'www.indeed.com/cmp/Transamerica-Life-&-Protection'
p358
sS'Transamerica Insurance'
p359
S'www.indeed.com/cmp/Transamerica-Insurance'
p360
sS'Transamerica Agency Network'
p361
S'www.indeed.com/cmp/Transamerica-Agency-Network'
p362
sS'Transamerica Corporation'
p363
S'www.indeed.com/cmp/Transamerica-Corporation'
p364
sS'Transamerica Retirement Solutions'
p365
S'www.indeed.com/cmp/Transamerica-Retirement-Solutions'
p366
sS'Transamerica'
p367
S'www.indeed.com/cmp/Transamerica'
p368
sS'Transamerica Life Insurance Company'
p369
S'www.indeed.com/cmp/Transamerica-Life-Insurance-Company'
p370
ssS'Fortner Bayens Levkulich and Garrison'
p371
(dp372
sS'MG Stover & Co'
p373
(dp374
sS'The Buckle , Inc.'
p375
(dp376
S'Buckley Associates'
p377
S'www.indeed.com/cmp/Buckley-Associates'
p378
sS'BUCKLEY AIR FORCE BASE'
p379
S'www.indeed.com/cmp/Buckley-Air-Force-Base'
p380
sS'Buckle'
p381
S'www.indeed.com/cmp/Buckle'
p382
sS'Buckle Clothing Store'
p383
S'www.indeed.com/cmp/Buckle-Clothing-Store'
p384
sS'Buckle, Inc'
p385
S'www.indeed.com/cmp/Buckle,-Inc'
p386
sS'Buckle Inc- Retail'
p387
S'www.indeed.com/cmp/Buckle-Inc---Retail'
p388
sS'Buckley Madole'
p389
S'www.indeed.com/cmp/Buckley-Madole'
p390
sS'Buckley'
p391
S'www.indeed.com/cmp/Buckley'
p392
sS'Buckle Clothing'
p393
S'www.indeed.com/cmp/Buckle-Clothing'
p394
sS'The Buckle, Inc'
p395
S'www.indeed.com/cmp/The-Buckle,-Inc'
p396
ssS'City Of Boulder Colorado Government'
p397
(dp398
sS'General Services Administration'
p399
(dp400
S'South Carolina Department of Administration General Services Division'
p401
S'www.indeed.com/cmp/South-Carolina-Department-of-Administration-General-Services-Division'
p402
sS'US General Services Administration (GSA)'
p403
S'www.indeed.com/cmp/US-General-Services-Administration-(gsa)'
p404
sS'U S General Services Administration'
p405
S'www.indeed.com/cmp/U-S-General-Services-Administration'
p406
sS'United States General Services Administration'
p407
S'www.indeed.com/cmp/United-States-General-Services-Administration'
p408
sS'General Service Administration (GSA)'
p409
S'www.indeed.com/cmp/General-Service-Administration-(gsa)'
p410
sS'U.S. General Service Administration'
p411
S'www.indeed.com/cmp/U.S.-General-Service-Administration'
p412
sS'U.S General Services Administration'
p413
S'www.indeed.com/cmp/U.s-General-Services-Administration'
p414
sS'General Services Administration (GSA)'
p415
S'www.indeed.com/cmp/General-Services-Administration-(gsa)'
p416
sS'US General Services Administration'
p417
S'www.indeed.com/cmp/US-General-Services-Administration'
p418
sS'General Service Administration'
p419
S'www.indeed.com/cmp/General-Service-Administration'
p420
ssS'CED - Consolidated Electrical Distributors, Inc.'
p421
(dp422
S'CED Consolidated Electrical Distributors'
p423
S'www.indeed.com/cmp/Ced-Consolidated-Electrical-Distributors-1'
p424
sS'CONSOLIDATED ELECTRICAL DISTRIBUTORS (CED)'
p425
S'www.indeed.com/cmp/Consolidated-Electrical-Distributors-(ced)'
p426
ssS'Ball Corporation'
p427
(dp428
S'Bally Technologies'
p429
S'www.indeed.com/cmp/Bally-Technologies'
p430
sS'Ball Corporation'
p431
S'www.indeed.com/cmp/Ball-Corporation'
p432
sS'JOHN BALL ZOO'
p433
S'www.indeed.com/cmp/John-Ball-Zoo'
p434
sS'National Football League'
p435
S'www.indeed.com/cmp/National-Football-League'
p436
sS'Balls Foods'
p437
S'www.indeed.com/cmp/Balls-Foods'
p438
sS'Bally Total Fitness'
p439
S'www.indeed.com/cmp/Bally-Total-Fitness'
p440
sS'IU Health Ball Memorial Hospital'
p441
S'www.indeed.com/cmp/Iu-Health-Ball-Memorial-Hospital'
p442
sS"Bally's Casino"
p443
S"www.indeed.com/cmp/Bally's-Casino"
p444
sS'Ball Aerospace'
p445
S'www.indeed.com/cmp/Ball-Aerospace'
p446
sS'Ball Memorial Hospital'
p447
S'www.indeed.com/cmp/Ball-Memorial-Hospital'
p448
ssS'Delta Dental CO'
p449
(dp450
S'Delta Dental of Washington'
p451
S'www.indeed.com/cmp/Delta-Dental-of-Washington'
p452
sS'Delta Dental of Wisconsin'
p453
S'www.indeed.com/cmp/Delta-Dental-of-Wisconsin'
p454
sS'Delta Dental of New Mexico'
p455
S'www.indeed.com/cmp/Delta-Dental-of-New-Mexico'
p456
sS'Delta Dental of Kentucky'
p457
S'www.indeed.com/cmp/Delta-Dental-of-Kentucky'
p458
sS'Delta Dental of Minnesota'
p459
S'www.indeed.com/cmp/Delta-Dental-of-Minnesota'
p460
sS'Delta Dental California'
p461
S'www.indeed.com/cmp/Delta-Dental-California'
p462
sS'PMI Delta Dental'
p463
S'www.indeed.com/cmp/PMI-Delta-Dental'
p464
sS'Delta Dental of Iowa'
p465
S'www.indeed.com/cmp/Delta-Dental-of-Iowa'
p466
sS'Delta Dental'
p467
S'www.indeed.com/cmp/Delta-Dental'
p468
sS'Delta Dental of Illinois'
p469
S'www.indeed.com/cmp/Delta-Dental-of-Illinois'
p470
ssS'Pulte Mortgage'
p471
(dp472
S'PulteGroup, Inc'
p473
S'www.indeed.com/cmp/Pultegroup,-Inc'
p474
sS'Pulte Mortgage LLC'
p475
S'www.indeed.com/cmp/Pulte-Mortgage-LLC'
p476
ssS'Ibotta, Inc.'
p477
(dp478
S'Ibotta, Inc'
p479
S'www.indeed.com/cmp/Ibotta,-Inc'
p480
sS'Ibotta'
p481
S'www.indeed.com/cmp/Ibotta'
p482
ssS'Pacific Office Automation'
p483
(dp484
S'Pacific Office Automation'
p485
S'www.indeed.com/cmp/Pacific-Office-Automation'
p486
sS'Pacific Office Automations'
p487
S'www.indeed.com/cmp/Pacific-Office-Automations'
p488
ssS'Universal Forest Products'
p489
(dp490
S'UFP universal forest products'
p491
S'www.indeed.com/cmp/Ufp-Universal-Forest-Products'
p492
sS'Universal Forest Products, Inc.'
p493
S'www.indeed.com/cmp/Universal-Forest-Products,-Inc.'
p494
sS'Universal Forest Products Inc'
p495
S'www.indeed.com/cmp/Universal-Forest-Products-Inc'
p496
ssS'USPS OIG'
p497
(dp498
S'United States Postal Service'
p499
S'www.indeed.com/cmp/United-States-Postal-Service'
p500
ssS'Penske Truck Leasing'
p501
(dp502
S'Penske'
p503
S'www.indeed.com/cmp/Penske'
p504
ssS'Federal Reserve Bank Of Kansas City'
p505
(dp506
S'Federal Reserve Bank of Kansas City'
p507
S'www.indeed.com/cmp/Federal-Reserve-Bank-of-Kansas-City'
p508
ss.