(lp0
S'SmarTek21'
p1
aS'WXYZ'
p2
aS'Viq Australia'
p3
aS'Visual TECH.'
p4
aS'Zayo Group LLC'
p5
aS'Delta Dental CO'
p6
aS'Arrow Electronics'
p7
aS'Arture'
p8
aS'City Of Boulder Colorado Government'
p9
aS'Monterey Marketing Inc'
p10
aS'Ball Corporation'
p11
aS'Frontier Airlines, Inc.'
p12
aS'Federal Reserve Bank Of Kansas City'
p13
aS'The Buckle , Inc.'
p14
aS'CED - Consolidated Electrical Distributors, Inc.'
p15
aS'Collabera'
p16
aS'OTR Capital LLC'
p17
aS'City and County Of Denver'
p18
aS'Procter & Gamble'
p19
aS'China America Gateways'
p20
aS'Coyote Logistics LLC'
p21
aS'Ensign Services Inc'
p22
aS'Graebel Companies, Inc.'
p23
aS'Foresters Financial'
p24
aS'Pulte Mortgage'
p25
aS'Fortner Bayens Levkulich and Garrison'
p26
aS'Medical Group Management Association (MGMA)'
p27
aS'Transamerica Corporation'
p28
aS'Universal Forest Products'
p29
aS'Techtronic Industries North America Inc'
p30
aS'Wealth Strategies Group LLC'
p31
aS'Penske Truck Leasing'
p32
aS'USPS OIG'
p33
aS'Agility Recovery'
p34
aS'The Travelers Companies Inc.'
p35
aS'Mutual of Omaha'
p36
aS'General Services Administration'
p37
aS'Oakwood Homes, LLC'
p38
aS'Pacific Office Automation'
p39
aS'Trustpilot'
p40
aS'Janus Henderson Investors'
p41
aS'Business'
p42
aS'IHG - InterContinental Hotels Group'
p43
aS'Vanguard'
p44
aS'Ibotta, Inc.'
p45
aS'Vistana Signature Experiences'
p46
aS'Hagerty'
p47
aS'MG Stover & Co'
p48
aS'At Home Personal Care'
p49
aS'City Year Inc'
p50
aS'Grace Presbyterian Village'
p51
aS'Veryable Inc.'
p52
aS'Taylor Smith Consulting, LLC'
p53
aS'STRIVE Preparatory Schools'
p54
aS'New York Life Insurance Company'
p55
a.